target datalayout = "e-m:e-p270:32:32-p271:32:32-p272:64:64-i64:64-i128:128-f80:128-n8:16:32:64-S128"
target triple = "x86_64-pc-linux-gnu"

%struct.__va_list_tag = type { i32, i32, ptr, ptr }

@save_argv = internal global ptr null, align 8
@ps_buffer = internal global ptr null, align 8
@ps_buffer_size = internal global i64 0, align 8
@.str = private unnamed_addr constant [3 x i8] c"%s\00", align 1
@__progname = external global ptr, align 8
@.str.1 = private unnamed_addr constant [5 x i8] c"%s: \00", align 1

; Function Attrs: nounwind uwtable
define dso_local void @setproctitle(ptr noundef %0, ...) #0 {
  %2 = alloca ptr, align 8
  %3 = alloca i64, align 8
  %4 = alloca [1 x %struct.__va_list_tag], align 16
  %5 = alloca i32, align 4
  store ptr %0, ptr %2, align 8
  call void @llvm.lifetime.start.p0(i64 8, ptr %3) #9
  call void @llvm.lifetime.start.p0(i64 24, ptr %4) #9
  %6 = load ptr, ptr @save_argv, align 8
  %7 = icmp eq ptr %6, null
  br i1 %7, label %8, label %9

8:                                                ; preds = %1
  store i32 1, ptr %5, align 4
  br label %58

9:                                                ; preds = %1
  %10 = load ptr, ptr @ps_buffer, align 8
  %11 = icmp eq ptr %10, null
  br i1 %11, label %12, label %13

12:                                               ; preds = %9
  store i32 1, ptr %5, align 4
  br label %58

13:                                               ; preds = %9
  %14 = load ptr, ptr @save_argv, align 8
  %15 = getelementptr inbounds ptr, ptr %14, i64 1
  store ptr null, ptr %15, align 8
  %16 = getelementptr inbounds [1 x %struct.__va_list_tag], ptr %4, i64 0, i64 0
  call void @llvm.va_start.p0(ptr %16)
  %17 = load ptr, ptr %2, align 8
  %18 = icmp eq ptr %17, null
  br i1 %18, label %19, label %24

19:                                               ; preds = %13
  %20 = load ptr, ptr @ps_buffer, align 8
  %21 = load i64, ptr @ps_buffer_size, align 8
  %22 = load ptr, ptr @__progname, align 8
  %23 = call i32 (ptr, i64, ptr, ...) @snprintf(ptr noundef %20, i64 noundef %21, ptr noundef @.str, ptr noundef %22) #9
  br label %48

24:                                               ; preds = %13
  %25 = load ptr, ptr @ps_buffer, align 8
  %26 = load i64, ptr @ps_buffer_size, align 8
  %27 = load ptr, ptr @__progname, align 8
  %28 = call i32 (ptr, i64, ptr, ...) @snprintf(ptr noundef %25, i64 noundef %26, ptr noundef @.str.1, ptr noundef %27) #9
  %29 = sext i32 %28 to i64
  store i64 %29, ptr %3, align 8
  %30 = load i64, ptr %3, align 8
  %31 = icmp eq i64 %30, -1
  br i1 %31, label %36, label %32

32:                                               ; preds = %24
  %33 = load i64, ptr %3, align 8
  %34 = load i64, ptr @ps_buffer_size, align 8
  %35 = icmp uge i64 %33, %34
  br i1 %35, label %36, label %38

36:                                               ; preds = %32, %24
  %37 = load i64, ptr @ps_buffer_size, align 8
  store i64 %37, ptr %3, align 8
  br label %38

38:                                               ; preds = %36, %32
  %39 = load ptr, ptr @ps_buffer, align 8
  %40 = load i64, ptr %3, align 8
  %41 = getelementptr inbounds i8, ptr %39, i64 %40
  %42 = load i64, ptr @ps_buffer_size, align 8
  %43 = load i64, ptr %3, align 8
  %44 = sub i64 %42, %43
  %45 = load ptr, ptr %2, align 8
  %46 = getelementptr inbounds [1 x %struct.__va_list_tag], ptr %4, i64 0, i64 0
  %47 = call i32 @vsnprintf(ptr noundef %41, i64 noundef %44, ptr noundef %45, ptr noundef %46) #9
  br label %48

48:                                               ; preds = %38, %19
  %49 = getelementptr inbounds [1 x %struct.__va_list_tag], ptr %4, i64 0, i64 0
  call void @llvm.va_end.p0(ptr %49)
  %50 = load ptr, ptr @ps_buffer, align 8
  %51 = call i64 @strlen(ptr noundef %50) #10
  store i64 %51, ptr %3, align 8
  %52 = load ptr, ptr @ps_buffer, align 8
  %53 = load i64, ptr %3, align 8
  %54 = getelementptr inbounds i8, ptr %52, i64 %53
  %55 = load i64, ptr @ps_buffer_size, align 8
  %56 = load i64, ptr %3, align 8
  %57 = sub i64 %55, %56
  call void @llvm.memset.p0.i64(ptr align 1 %54, i8 0, i64 %57, i1 false)
  store i32 0, ptr %5, align 4
  br label %58

58:                                               ; preds = %48, %12, %8
  call void @llvm.lifetime.end.p0(i64 24, ptr %4) #9
  call void @llvm.lifetime.end.p0(i64 8, ptr %3) #9
  %59 = load i32, ptr %5, align 4
  switch i32 %59, label %61 [
    i32 0, label %60
    i32 1, label %60
  ]

60:                                               ; preds = %58, %58
  ret void

61:                                               ; preds = %58
  unreachable
}