; Function Attrs: nofree nounwind uwtable
define dso_local void @setproctitle(ptr noundef readonly captures(address_is_null) %0, ...) local_unnamed_addr #0 {
  %2 = alloca [1 x %struct.__va_list_tag], align 16
  call void @llvm.lifetime.start.p0(i64 24, ptr nonnull %2) #14
  %3 = load ptr, ptr @save_argv, align 8
  %4 = icmp eq ptr %3, null
  %5 = load ptr, ptr @ps_buffer, align 8
  %6 = icmp eq ptr %5, null
  %or.cond = select i1 %4, i1 true, i1 %6
  br i1 %or.cond, label %27, label %7

7:                                                ; preds = %1
  %8 = getelementptr inbounds nuw i8, ptr %3, i64 8
  store ptr null, ptr %8, align 8
  call void @llvm.va_start.p0(ptr nonnull %2)
  %9 = icmp eq ptr %0, null
  %10 = load i64, ptr @ps_buffer_size, align 8
  %11 = load ptr, ptr @__progname, align 8
  br i1 %9, label %12, label %14

12:                                               ; preds = %7
  %13 = call i32 (ptr, i64, ptr, ...) @snprintf(ptr noundef nonnull %5, i64 noundef %10, ptr noundef nonnull @.str, ptr noundef %11) #14
  br label %21

14:                                               ; preds = %7
  %15 = call i32 (ptr, i64, ptr, ...) @snprintf(ptr noundef nonnull %5, i64 noundef %10, ptr noundef nonnull @.str.1, ptr noundef %11) #14
  %.pre = load i64, ptr @ps_buffer_size, align 8
  %16 = sext i32 %15 to i64
  %.0 = call i64 @llvm.umin.i64(i64 %.pre, i64 %16)
  %17 = load ptr, ptr @ps_buffer, align 8
  %18 = getelementptr inbounds i8, ptr %17, i64 %.0
  %19 = sub i64 %.pre, %.0
  %20 = call i32 @vsnprintf(ptr noundef %18, i64 noundef %19, ptr noundef nonnull %0, ptr noundef nonnull %2) #14
  br label %21

21:                                               ; preds = %14, %12
  call void @llvm.va_end.p0(ptr nonnull %2)
  %22 = load ptr, ptr @ps_buffer, align 8
  %23 = call i64 @strlen(ptr noundef nonnull dereferenceable(1) %22) #15
  %24 = getelementptr inbounds i8, ptr %22, i64 %23
  %25 = load i64, ptr @ps_buffer_size, align 8
  %26 = sub i64 %25, %23
  call void @llvm.memset.p0.i64(ptr nonnull align 1 %24, i8 0, i64 %26, i1 false)
  br label %27

27:                                               ; preds = %1, %21
  call void @llvm.lifetime.end.p0(i64 24, ptr nonnull %2) #14
  ret void
}